   1              	 .syntax unified
   2              	 .cpu cortex-m4
   3              	 .eabi_attribute 27,3
   4              	 .fpu fpv4-sp-d16
   5              	 .eabi_attribute 20,1
   6              	 .eabi_attribute 21,1
   7              	 .eabi_attribute 23,3
   8              	 .eabi_attribute 24,1
   9              	 .eabi_attribute 25,1
  10              	 .eabi_attribute 26,1
  11              	 .eabi_attribute 30,6
  12              	 .eabi_attribute 34,1
  13              	 .eabi_attribute 18,4
  14              	 .thumb
  15              	 .file "app.c"
  16              	 .text
  17              	.Ltext0:
  18              	 .cfi_sections .debug_frame
  19              	 .global u16timerFlag
  20              	 .section .bss.u16timerFlag,"aw",%nobits
  21              	 .align 1
  24              	u16timerFlag:
  25 0000 0000     	 .space 2
  26              	 .global u16myTime
  27              	 .section .bss.u16myTime,"aw",%nobits
  28              	 .align 1
  31              	u16myTime:
  32 0000 0000     	 .space 2
  33              	 .global bMyTimeoutFlag
  34              	 .section .bss.bMyTimeoutFlag,"aw",%nobits
  37              	bMyTimeoutFlag:
  38 0000 00       	 .space 1
  39              	 .global bTxReady
  40              	 .section .bss.bTxReady,"aw",%nobits
  43              	bTxReady:
  44 0000 00       	 .space 1
  45              	 .global bRxReady
  46              	 .section .bss.bRxReady,"aw",%nobits
  49              	bRxReady:
  50 0000 00       	 .space 1
  51              	 .global __aeabi_i2d
  52              	 .section .text.generateRandomTemperature,"ax",%progbits
  53              	 .align 2
  54              	 .global generateRandomTemperature
  55              	 .thumb
  56              	 .thumb_func
  58              	generateRandomTemperature:
  59              	.LFB343:
  60              	 .file 1 "../app.c"
   1:../app.c      **** /*
   2:../app.c      ****  * app.c
   3:../app.c      ****  *
   4:../app.c      ****  *  Created on: 6 Nov 2023
   5:../app.c      ****  *      Author: M67732
   6:../app.c      ****  */
   7:../app.c      **** 
   8:../app.c      **** #include "app.h"
   9:../app.c      **** 
  10:../app.c      **** // Global variables
  11:../app.c      **** volatile uint16_t u16timerFlag = 0;        // Flag indicating timer event
  12:../app.c      **** uint16_t u16myTime = 0;                      // Timeout value in seconds
  13:../app.c      **** 
  14:../app.c      **** bool bMyTimeoutFlag = false;                 // Timeout flag
  15:../app.c      **** volatile bool bTxReady = false;              // Transmission ready flag
  16:../app.c      **** volatile bool bRxReady = false;              // Reception ready flag
  17:../app.c      **** 
  18:../app.c      **** // Function to generate a random temperature value
  19:../app.c      **** double generateRandomTemperature() {
  61              	 .loc 1 19 0
  62              	 .cfi_startproc
  63              	 
  64              	 
  65 0000 80B5     	 push {r7,lr}
  66              	.LCFI0:
  67              	 .cfi_def_cfa_offset 8
  68              	 .cfi_offset 7,-8
  69              	 .cfi_offset 14,-4
  70 0002 00AF     	 add r7,sp,#0
  71              	.LCFI1:
  72              	 .cfi_def_cfa_register 7
  20:../app.c      ****     return (rand() % 100);
  73              	 .loc 1 20 0
  74 0004 FFF7FEFF 	 bl rand
  75 0008 0246     	 mov r2,r0
  76 000a 094B     	 ldr r3,.L3
  77 000c 83FB0213 	 smull r1,r3,r3,r2
  78 0010 5911     	 asrs r1,r3,#5
  79 0012 D317     	 asrs r3,r2,#31
  80 0014 CB1A     	 subs r3,r1,r3
  81 0016 6421     	 movs r1,#100
  82 0018 01FB03F3 	 mul r3,r1,r3
  83 001c D31A     	 subs r3,r2,r3
  84 001e 1846     	 mov r0,r3
  85 0020 FFF7FEFF 	 bl __aeabi_i2d
  86 0024 0246     	 mov r2,r0
  87 0026 0B46     	 mov r3,r1
  21:../app.c      **** }
  88              	 .loc 1 21 0
  89 0028 1046     	 mov r0,r2
  90 002a 1946     	 mov r1,r3
  91 002c 80BD     	 pop {r7,pc}
  92              	.L4:
  93 002e 00BF     	 .align 2
  94              	.L3:
  95 0030 1F85EB51 	 .word 1374389535
  96              	 .cfi_endproc
  97              	.LFE343:
  99              	 .section .text.setTimeout,"ax",%progbits
 100              	 .align 2
 101              	 .global setTimeout
 102              	 .thumb
 103              	 .thumb_func
 105              	setTimeout:
 106              	.LFB344:
  22:../app.c      **** 
  23:../app.c      **** // Set timeout value in seconds
  24:../app.c      **** void setTimeout(int16_t sec) {
 107              	 .loc 1 24 0
 108              	 .cfi_startproc
 109              	 
 110              	 
 111              	 
 112 0000 80B4     	 push {r7}
 113              	.LCFI2:
 114              	 .cfi_def_cfa_offset 4
 115              	 .cfi_offset 7,-4
 116 0002 83B0     	 sub sp,sp,#12
 117              	.LCFI3:
 118              	 .cfi_def_cfa_offset 16
 119 0004 00AF     	 add r7,sp,#0
 120              	.LCFI4:
 121              	 .cfi_def_cfa_register 7
 122 0006 0346     	 mov r3,r0
 123 0008 FB80     	 strh r3,[r7,#6]
  25:../app.c      ****     u16myTime = sec;
 124              	 .loc 1 25 0
 125 000a FA88     	 ldrh r2,[r7,#6]
 126 000c 034B     	 ldr r3,.L6
 127 000e 1A80     	 strh r2,[r3]
  26:../app.c      **** }
 128              	 .loc 1 26 0
 129 0010 0C37     	 adds r7,r7,#12
 130              	.LCFI5:
 131              	 .cfi_def_cfa_offset 4
 132 0012 BD46     	 mov sp,r7
 133              	.LCFI6:
 134              	 .cfi_def_cfa_register 13
 135              	 
 136 0014 5DF8047B 	 ldr r7,[sp],#4
 137              	.LCFI7:
 138              	 .cfi_restore 7
 139              	 .cfi_def_cfa_offset 0
 140 0018 7047     	 bx lr
 141              	.L7:
 142 001a 00BF     	 .align 2
 143              	.L6:
 144 001c 00000000 	 .word u16myTime
 145              	 .cfi_endproc
 146              	.LFE344:
 148              	 .section .text.isTimeout,"ax",%progbits
 149              	 .align 2
 150              	 .global isTimeout
 151              	 .thumb
 152              	 .thumb_func
 154              	isTimeout:
 155              	.LFB345:
  27:../app.c      **** 
  28:../app.c      **** // Check if a timeout has occurred
  29:../app.c      **** bool isTimeout(void) {
 156              	 .loc 1 29 0
 157              	 .cfi_startproc
 158              	 
 159              	 
 160              	 
 161 0000 80B4     	 push {r7}
 162              	.LCFI8:
 163              	 .cfi_def_cfa_offset 4
 164              	 .cfi_offset 7,-4
 165 0002 00AF     	 add r7,sp,#0
 166              	.LCFI9:
 167              	 .cfi_def_cfa_register 7
  30:../app.c      ****     if (bMyTimeoutFlag) {
 168              	 .loc 1 30 0
 169 0004 074B     	 ldr r3,.L11
 170 0006 1B78     	 ldrb r3,[r3]
 171 0008 002B     	 cmp r3,#0
 172 000a 04D0     	 beq .L9
  31:../app.c      ****         bMyTimeoutFlag = false;              // Reset the timeout flag
 173              	 .loc 1 31 0
 174 000c 054B     	 ldr r3,.L11
 175 000e 0022     	 movs r2,#0
 176 0010 1A70     	 strb r2,[r3]
  32:../app.c      ****         return true;
 177              	 .loc 1 32 0
 178 0012 0123     	 movs r3,#1
 179 0014 00E0     	 b .L10
 180              	.L9:
  33:../app.c      ****     }
  34:../app.c      ****     return false;
 181              	 .loc 1 34 0
 182 0016 0023     	 movs r3,#0
 183              	.L10:
  35:../app.c      **** }
 184              	 .loc 1 35 0
 185 0018 1846     	 mov r0,r3
 186 001a BD46     	 mov sp,r7
 187              	.LCFI10:
 188              	 .cfi_def_cfa_register 13
 189              	 
 190 001c 5DF8047B 	 ldr r7,[sp],#4
 191              	.LCFI11:
 192              	 .cfi_restore 7
 193              	 .cfi_def_cfa_offset 0
 194 0020 7047     	 bx lr
 195              	.L12:
 196 0022 00BF     	 .align 2
 197              	.L11:
 198 0024 00000000 	 .word bMyTimeoutFlag
 199              	 .cfi_endproc
 200              	.LFE345:
 202              	 .section .text.CCU43_1_IRQHandler,"ax",%progbits
 203              	 .align 2
 204              	 .global CCU43_1_IRQHandler
 205              	 .thumb
 206              	 .thumb_func
 208              	CCU43_1_IRQHandler:
 209              	.LFB346:
  36:../app.c      **** 
  37:../app.c      **** // Timer0 interrupt service routine
  38:../app.c      **** void Timer0_ISR(void) {
 210              	 .loc 1 38 0
 211              	 .cfi_startproc
 212              	 
 213              	 
 214              	 
 215 0000 80B4     	 push {r7}
 216              	.LCFI12:
 217              	 .cfi_def_cfa_offset 4
 218              	 .cfi_offset 7,-4
 219 0002 00AF     	 add r7,sp,#0
 220              	.LCFI13:
 221              	 .cfi_def_cfa_register 7
  39:../app.c      ****     u16timerFlag = 1;
 222              	 .loc 1 39 0
 223 0004 0B4B     	 ldr r3,.L15
 224 0006 0122     	 movs r2,#1
 225 0008 1A80     	 strh r2,[r3]
  40:../app.c      **** 
  41:../app.c      ****     if (u16myTime) {
 226              	 .loc 1 41 0
 227 000a 0B4B     	 ldr r3,.L15+4
 228 000c 1B88     	 ldrh r3,[r3]
 229 000e 002B     	 cmp r3,#0
 230 0010 0CD0     	 beq .L13
  42:../app.c      ****         u16myTime--;
 231              	 .loc 1 42 0
 232 0012 094B     	 ldr r3,.L15+4
 233 0014 1B88     	 ldrh r3,[r3]
 234 0016 013B     	 subs r3,r3,#1
 235 0018 9AB2     	 uxth r2,r3
 236 001a 074B     	 ldr r3,.L15+4
 237 001c 1A80     	 strh r2,[r3]
  43:../app.c      ****         if (u16myTime == 0)
 238              	 .loc 1 43 0
 239 001e 064B     	 ldr r3,.L15+4
 240 0020 1B88     	 ldrh r3,[r3]
 241 0022 002B     	 cmp r3,#0
 242 0024 02D1     	 bne .L13
  44:../app.c      ****             bMyTimeoutFlag = true;            // Set timeout flag when the timer reaches zero
 243              	 .loc 1 44 0
 244 0026 054B     	 ldr r3,.L15+8
 245 0028 0122     	 movs r2,#1
 246 002a 1A70     	 strb r2,[r3]
 247              	.L13:
  45:../app.c      ****     }
  46:../app.c      **** }
 248              	 .loc 1 46 0
 249 002c BD46     	 mov sp,r7
 250              	.LCFI14:
 251              	 .cfi_def_cfa_register 13
 252              	 
 253 002e 5DF8047B 	 ldr r7,[sp],#4
 254              	.LCFI15:
 255              	 .cfi_restore 7
 256              	 .cfi_def_cfa_offset 0
 257 0032 7047     	 bx lr
 258              	.L16:
 259              	 .align 2
 260              	.L15:
 261 0034 00000000 	 .word u16timerFlag
 262 0038 00000000 	 .word u16myTime
 263 003c 00000000 	 .word bMyTimeoutFlag
 264              	 .cfi_endproc
 265              	.LFE346:
 267              	 .section .text.endOfTransmissionCB_ISR,"ax",%progbits
 268              	 .align 2
 269              	 .global endOfTransmissionCB_ISR
 270              	 .thumb
 271              	 .thumb_func
 273              	endOfTransmissionCB_ISR:
 274              	.LFB347:
  47:../app.c      **** 
  48:../app.c      **** // Callback function for the end of transmission
  49:../app.c      **** void endOfTransmissionCB_ISR(void) {
 275              	 .loc 1 49 0
 276              	 .cfi_startproc
 277              	 
 278              	 
 279              	 
 280 0000 80B4     	 push {r7}
 281              	.LCFI16:
 282              	 .cfi_def_cfa_offset 4
 283              	 .cfi_offset 7,-4
 284 0002 00AF     	 add r7,sp,#0
 285              	.LCFI17:
 286              	 .cfi_def_cfa_register 7
  50:../app.c      ****     bTxReady = true;                          // Set transmission ready flag
 287              	 .loc 1 50 0
 288 0004 034B     	 ldr r3,.L18
 289 0006 0122     	 movs r2,#1
 290 0008 1A70     	 strb r2,[r3]
  51:../app.c      **** }
 291              	 .loc 1 51 0
 292 000a BD46     	 mov sp,r7
 293              	.LCFI18:
 294              	 .cfi_def_cfa_register 13
 295              	 
 296 000c 5DF8047B 	 ldr r7,[sp],#4
 297              	.LCFI19:
 298              	 .cfi_restore 7
 299              	 .cfi_def_cfa_offset 0
 300 0010 7047     	 bx lr
 301              	.L19:
 302 0012 00BF     	 .align 2
 303              	.L18:
 304 0014 00000000 	 .word bTxReady
 305              	 .cfi_endproc
 306              	.LFE347:
 308              	 .section .text.endOfReceptionCB_ISR,"ax",%progbits
 309              	 .align 2
 310              	 .global endOfReceptionCB_ISR
 311              	 .thumb
 312              	 .thumb_func
 314              	endOfReceptionCB_ISR:
 315              	.LFB348:
  52:../app.c      **** 
  53:../app.c      **** // Callback function for the end of reception
  54:../app.c      **** void endOfReceptionCB_ISR(void) {
 316              	 .loc 1 54 0
 317              	 .cfi_startproc
 318              	 
 319              	 
 320              	 
 321 0000 80B4     	 push {r7}
 322              	.LCFI20:
 323              	 .cfi_def_cfa_offset 4
 324              	 .cfi_offset 7,-4
 325 0002 00AF     	 add r7,sp,#0
 326              	.LCFI21:
 327              	 .cfi_def_cfa_register 7
  55:../app.c      ****     bRxReady = true;                          // Set reception ready flag
 328              	 .loc 1 55 0
 329 0004 034B     	 ldr r3,.L21
 330 0006 0122     	 movs r2,#1
 331 0008 1A70     	 strb r2,[r3]
  56:../app.c      **** }
 332              	 .loc 1 56 0
 333 000a BD46     	 mov sp,r7
 334              	.LCFI22:
 335              	 .cfi_def_cfa_register 13
 336              	 
 337 000c 5DF8047B 	 ldr r7,[sp],#4
 338              	.LCFI23:
 339              	 .cfi_restore 7
 340              	 .cfi_def_cfa_offset 0
 341 0010 7047     	 bx lr
 342              	.L22:
 343 0012 00BF     	 .align 2
 344              	.L21:
 345 0014 00000000 	 .word bRxReady
 346              	 .cfi_endproc
 347              	.LFE348:
 349              	 .text
 350              	.Letext0:
 351              	 .file 2 "c:\\infineon\\tools\\dave ide\\4.5.0.202105191637\\eclipse\\arm-gcc-49\\arm-none-eabi\\include\\machine\\_default_types.h"
 352              	 .file 3 "c:\\infineon\\tools\\dave ide\\4.5.0.202105191637\\eclipse\\arm-gcc-49\\arm-none-eabi\\include\\stdint.h"
 353              	 .file 4 "C:/MCHP/Customers/BMZ/proof of concept/work/XMC4700_AnyCloud/Libraries/XMCLib/inc/xmc_usic.h"
 354              	 .file 5 "C:/MCHP/Customers/BMZ/proof of concept/work/XMC4700_AnyCloud/Libraries/CMSIS/Include/cmsis_gcc.h"
 355              	 .file 6 "C:/MCHP/Customers/BMZ/proof of concept/work/XMC4700_AnyCloud/Libraries/CMSIS/Include/core_cm4.h"
 356              	 .file 7 "C:/MCHP/Customers/BMZ/proof of concept/work/XMC4700_AnyCloud/Libraries/CMSIS/Infineon/XMC4700_series/Include/system_XMC4700.h"